target datalayout = "e-m:e-p270:32:32-p271:32:32-p272:64:64-i64:64-i128:128-f80:128-n8:16:32:64-S128"
target triple = "x86_64-unknown-linux-gnu"

%"class.net::QuicWallTime" = type { i64 }
%"class.base::BasicStringPiece" = type { ptr, i64 }
%"struct.std::_Rb_tree_header" = type { %"struct.std::_Rb_tree_node_base", i64 }
%"struct.std::_Rb_tree_node_base" = type { i32, ptr, ptr, ptr }
%"class.std::__cxx11::basic_string" = type { %"struct.std::__cxx11::basic_string<char>::_Alloc_hider", i64, %union.anon }
%"struct.std::__cxx11::basic_string<char>::_Alloc_hider" = type { ptr }
%union.anon = type { i64, [8 x i8] }
%"class.std::vector.45" = type { %"struct.std::_Vector_base.46" }
%"struct.std::_Vector_base.46" = type { %"struct.std::_Vector_base<std::__cxx11::basic_string<char>, std::allocator<std::__cxx11::basic_string<char>>>::_Vector_impl" }
%"struct.std::_Vector_base<std::__cxx11::basic_string<char>, std::allocator<std::__cxx11::basic_string<char>>>::_Vector_impl" = type { %"struct.std::_Vector_base<std::__cxx11::basic_string<char>, std::allocator<std::__cxx11::basic_string<char>>>::_Vector_impl_data" }
%"struct.std::_Vector_base<std::__cxx11::basic_string<char>, std::allocator<std::__cxx11::basic_string<char>>>::_Vector_impl_data" = type { ptr, ptr, ptr }
%"class.net::QuicCryptoServerConfig" = type <{ i8, [7 x i8], i64, %"class.base::Lock", %"class.std::map.21", %class.scoped_refptr, %"class.net::QuicWallTime", %"class.std::unique_ptr.29", %"class.base::Lock", %"class.std::unique_ptr.37", %"class.net::CryptoSecretBoxer", %"class.net::CryptoSecretBoxer", [8 x i8], %"class.base::Lock", %"class.std::unique_ptr.50", %"class.std::unique_ptr.13", %"class.std::unique_ptr.58", i8, [3 x i8], i32, i32, i32, i32, i32, i32, i8, [3 x i8] }>
%"class.std::map.21" = type { %"class.std::_Rb_tree.22" }
%"class.std::_Rb_tree.22" = type { %"struct.std::_Rb_tree<std::__cxx11::basic_string<char>, std::pair<const std::__cxx11::basic_string<char>, scoped_refptr<net::QuicCryptoServerConfig::Config>>, std::_Select1st<std::pair<const std::__cxx11::basic_string<char>, scoped_refptr<net::QuicCryptoServerConfig::Config>>>, std::less<std::__cxx11::basic_string<char>>>::_Rb_tree_impl" }
%"struct.std::_Rb_tree<std::__cxx11::basic_string<char>, std::pair<const std::__cxx11::basic_string<char>, scoped_refptr<net::QuicCryptoServerConfig::Config>>, std::_Select1st<std::pair<const std::__cxx11::basic_string<char>, scoped_refptr<net::QuicCryptoServerConfig::Config>>>, std::less<std::__cxx11::basic_string<char>>>::_Rb_tree_impl" = type { %"struct.std::_Rb_tree_key_compare.26", %"struct.std::_Rb_tree_header" }
%"struct.std::_Rb_tree_key_compare.26" = type { %"struct.std::less.27" }
%"struct.std::less.27" = type { i8 }
%class.scoped_refptr = type { ptr }
%"class.std::unique_ptr.29" = type { %"struct.std::__uniq_ptr_data.30" }
%"struct.std::__uniq_ptr_data.30" = type { %"class.std::__uniq_ptr_impl.31" }
%"class.std::__uniq_ptr_impl.31" = type { %"class.std::tuple.32" }
%"class.std::tuple.32" = type { %"struct.std::_Tuple_impl.33" }
%"struct.std::_Tuple_impl.33" = type { %"struct.std::_Head_base.36" }
%"struct.std::_Head_base.36" = type { ptr }
%"class.std::unique_ptr.37" = type { %"struct.std::__uniq_ptr_data.38" }
%"struct.std::__uniq_ptr_data.38" = type { %"class.std::__uniq_ptr_impl.39" }
%"class.std::__uniq_ptr_impl.39" = type { %"class.std::tuple.40" }
%"class.std::tuple.40" = type { %"struct.std::_Tuple_impl.41" }
%"struct.std::_Tuple_impl.41" = type { %"struct.std::_Head_base.44" }
%"struct.std::_Head_base.44" = type { ptr }
%"class.net::CryptoSecretBoxer" = type { %"class.base::Lock", %"class.std::vector.45" }
%"class.base::Lock" = type { %"class.base::internal::LockImpl" }
%"class.base::internal::LockImpl" = type { %union.pthread_mutex_t }
%union.pthread_mutex_t = type { %struct.__pthread_mutex_s }
%struct.__pthread_mutex_s = type { i32, i32, i32, i32, i32, i16, i16, %struct.__pthread_internal_list }
%struct.__pthread_internal_list = type { ptr, ptr }
%"class.std::unique_ptr.50" = type { %"struct.std::__uniq_ptr_data.51" }
%"struct.std::__uniq_ptr_data.51" = type { %"class.std::__uniq_ptr_impl.52" }
%"class.std::__uniq_ptr_impl.52" = type { %"class.std::tuple.53" }
%"class.std::tuple.53" = type { %"struct.std::_Tuple_impl.54" }
%"struct.std::_Tuple_impl.54" = type { %"struct.std::_Head_base.57" }
%"struct.std::_Head_base.57" = type { ptr }
%"class.std::unique_ptr.13" = type { %"struct.std::__uniq_ptr_data.14" }
%"struct.std::__uniq_ptr_data.14" = type { %"class.std::__uniq_ptr_impl.15" }
%"class.std::__uniq_ptr_impl.15" = type { %"class.std::tuple.16" }
%"class.std::tuple.16" = type { %"struct.std::_Tuple_impl.17" }
%"struct.std::_Tuple_impl.17" = type { %"struct.std::_Head_base.20" }
%"struct.std::_Head_base.20" = type { ptr }
%"class.std::unique_ptr.58" = type { %"struct.std::__uniq_ptr_data.59" }
%"struct.std::__uniq_ptr_data.59" = type { %"class.std::__uniq_ptr_impl.60" }
%"class.std::__uniq_ptr_impl.60" = type { %"class.std::tuple.61" }
%"class.std::tuple.61" = type { %"struct.std::_Tuple_impl.62" }
%"struct.std::_Tuple_impl.62" = type { %"struct.std::_Head_base.65" }
%"struct.std::_Head_base.65" = type { ptr }

; Function Attrs: mustprogress uwtable
define dso_local void @_ZNK3net22QuicCryptoServerConfig14NewServerNonceB5cxx11EPNS_10QuicRandomENS_12QuicWallTimeE(ptr noalias sret(%"class.std::__cxx11::basic_string") align 8 %agg.result, ptr noundef nonnull align 8 dereferenceable(405) %this, ptr noundef %rand, i64 %now.coerce) #0 align 2 {
entry:
  %result.ptr = alloca ptr, align 8
  %now = alloca %"class.net::QuicWallTime", align 8
  %this.addr = alloca ptr, align 8
  %rand.addr = alloca ptr, align 8
  %timestamp = alloca i32, align 4
  %server_nonce = alloca [24 x i8], align 16
  %agg.tmp = alloca %"class.base::BasicStringPiece", align 8
  store ptr %agg.result, ptr %result.ptr, align 8
  %coerce.dive = getelementptr inbounds %"class.net::QuicWallTime", ptr %now, i32 0, i32 0
  store i64 %now.coerce, ptr %coerce.dive, align 8
  store ptr %this, ptr %this.addr, align 8
  store ptr %rand, ptr %rand.addr, align 8
  %this1 = load ptr, ptr %this.addr, align 8
  %call = call noundef i64 @_ZNK3net12QuicWallTime13ToUNIXSecondsEv(ptr noundef nonnull align 8 dereferenceable(8) %now)
  %conv = trunc i64 %call to i32
  store i32 %conv, ptr %timestamp, align 4
  %0 = load i32, ptr %timestamp, align 4
  %shr = lshr i32 %0, 24
  %conv2 = trunc i32 %shr to i8
  %arrayidx = getelementptr inbounds [24 x i8], ptr %server_nonce, i64 0, i64 0
  store i8 %conv2, ptr %arrayidx, align 16
  %1 = load i32, ptr %timestamp, align 4
  %shr3 = lshr i32 %1, 16
  %conv4 = trunc i32 %shr3 to i8
  %arrayidx5 = getelementptr inbounds [24 x i8], ptr %server_nonce, i64 0, i64 1
  store i8 %conv4, ptr %arrayidx5, align 1
  %2 = load i32, ptr %timestamp, align 4
  %shr6 = lshr i32 %2, 8
  %conv7 = trunc i32 %shr6 to i8
  %arrayidx8 = getelementptr inbounds [24 x i8], ptr %server_nonce, i64 0, i64 2
  store i8 %conv7, ptr %arrayidx8, align 2
  %3 = load i32, ptr %timestamp, align 4
  %conv9 = trunc i32 %3 to i8
  %arrayidx10 = getelementptr inbounds [24 x i8], ptr %server_nonce, i64 0, i64 3
  store i8 %conv9, ptr %arrayidx10, align 1
  %4 = load ptr, ptr %rand.addr, align 8
  %arrayidx11 = getelementptr inbounds [24 x i8], ptr %server_nonce, i64 0, i64 4
  %vtable = load ptr, ptr %4, align 8
  %vfn = getelementptr inbounds ptr, ptr %vtable, i64 2
  %5 = load ptr, ptr %vfn, align 8
  call void %5(ptr noundef nonnull align 8 dereferenceable(8) %4, ptr noundef %arrayidx11, i64 noundef 20)
  %server_nonce_boxer_ = getelementptr inbounds %"class.net::QuicCryptoServerConfig", ptr %this1, i32 0, i32 11
  %6 = load ptr, ptr %rand.addr, align 8
  %arraydecay = getelementptr inbounds [24 x i8], ptr %server_nonce, i64 0, i64 0
  call void @_ZN4base16BasicStringPieceINSt7__cxx1112basic_stringIcSt11char_traitsIcESaIcEEEEC1EPKcm(ptr noundef nonnull align 8 dereferenceable(16) %agg.tmp, ptr noundef %arraydecay, i64 noundef 24)
  %7 = getelementptr inbounds { ptr, i64 }, ptr %agg.tmp, i32 0, i32 0
  %8 = load ptr, ptr %7, align 8
  %9 = getelementptr inbounds { ptr, i64 }, ptr %agg.tmp, i32 0, i32 1
  %10 = load i64, ptr %9, align 8
  call void @_ZNK3net17CryptoSecretBoxer3BoxEPNS_10QuicRandomEN4base16BasicStringPieceINSt7__cxx1112basic_stringIcSt11char_traitsIcESaIcEEEEE(ptr sret(%"class.std::__cxx11::basic_string") align 8 %agg.result, ptr noundef nonnull align 8 dereferenceable(64) %server_nonce_boxer_, ptr noundef %6, ptr %8, i64 %10)
  ret void
}