; Function Attrs: mustprogress uwtable
define dso_local void @_ZNK3net22QuicCryptoServerConfig14NewServerNonceB5cxx11EPNS_10QuicRandomENS_12QuicWallTimeE(ptr noalias sret(%"class.std::__cxx11::basic_string") align 8 %agg.result, ptr noundef nonnull align 8 dereferenceable(405) %this, ptr noundef %rand, i64 %now.coerce) local_unnamed_addr #0 align 2 {
entry:
  %now = alloca %"class.net::QuicWallTime", align 8
  %server_nonce = alloca [24 x i8], align 16
  %agg.tmp = alloca %"class.base::BasicStringPiece", align 8
  store i64 %now.coerce, ptr %now, align 8
  %call = call noundef i64 @_ZNK3net12QuicWallTime13ToUNIXSecondsEv(ptr noundef nonnull align 8 dereferenceable(8) %now)
  %shr5 = lshr i64 %call, 24
  %conv2 = trunc i64 %shr5 to i8
  store i8 %conv2, ptr %server_nonce, align 16
  %shr36 = lshr i64 %call, 16
  %conv4 = trunc i64 %shr36 to i8
  %arrayidx5 = getelementptr inbounds i8, ptr %server_nonce, i64 1
  store i8 %conv4, ptr %arrayidx5, align 1
  %shr67 = lshr i64 %call, 8
  %conv7 = trunc i64 %shr67 to i8
  %arrayidx8 = getelementptr inbounds i8, ptr %server_nonce, i64 2
  store i8 %conv7, ptr %arrayidx8, align 2
  %conv9 = trunc i64 %call to i8
  %arrayidx10 = getelementptr inbounds i8, ptr %server_nonce, i64 3
  store i8 %conv9, ptr %arrayidx10, align 1
  %arrayidx11 = getelementptr inbounds i8, ptr %server_nonce, i64 4
  %vtable = load ptr, ptr %rand, align 8
  %vfn = getelementptr inbounds i8, ptr %vtable, i64 16
  %0 = load ptr, ptr %vfn, align 8
  call void %0(ptr noundef nonnull align 8 dereferenceable(8) %rand, ptr noundef nonnull %arrayidx11, i64 noundef 20)
  %server_nonce_boxer_ = getelementptr inbounds i8, ptr %this, i64 240
  call void @_ZN4base16BasicStringPieceINSt7__cxx1112basic_stringIcSt11char_traitsIcESaIcEEEEC1EPKcm(ptr noundef nonnull align 8 dereferenceable(16) %agg.tmp, ptr noundef nonnull %server_nonce, i64 noundef 24)
  %1 = load ptr, ptr %agg.tmp, align 8
  %2 = getelementptr inbounds i8, ptr %agg.tmp, i64 8
  %3 = load i64, ptr %2, align 8
  call void @_ZNK3net17CryptoSecretBoxer3BoxEPNS_10QuicRandomEN4base16BasicStringPieceINSt7__cxx1112basic_stringIcSt11char_traitsIcESaIcEEEEE(ptr sret(%"class.std::__cxx11::basic_string") align 8 %agg.result, ptr noundef nonnull align 8 dereferenceable(64) %server_nonce_boxer_, ptr noundef nonnull %rand, ptr %1, i64 %3)
  ret void
}